; ModuleID = '31/1108.c'
source_filename = "31/1108.c"
target datalayout = "e-m:e-p270:32:32-p271:32:32-p272:64:64-i64:64-f80:128-n8:16:32:64-S128"
target triple = "x86_64-pc-linux-gnu"

%struct.stu = type { [20 x i8], [20 x i8], i8, i32, [20 x i8], [20 x i8], %struct.stu* }

@.str = private unnamed_addr constant [18 x i8] c"%s %s %c %d %s %s\00", align 1
@.str.1 = private unnamed_addr constant [19 x i8] c"%s %s %c %d %s %s\0A\00", align 1

; Function Attrs: noinline nounwind uwtable
define dso_local i32 @main() #0 {
  %1 = alloca i32, align 4
  %2 = alloca %struct.stu*, align 8
  %3 = alloca %struct.stu*, align 8
  store i32 0, i32* %1, align 4
  %4 = call noalias i8* @malloc(i64 96) #3
  %5 = bitcast i8* %4 to %struct.stu*
  store %struct.stu* %5, %struct.stu** %2, align 8
  %6 = load %struct.stu*, %struct.stu** %2, align 8
  %7 = getelementptr inbounds %struct.stu, %struct.stu* %6, i32 0, i32 6
  store %struct.stu* null, %struct.stu** %7, align 8
  %8 = load %struct.stu*, %struct.stu** %2, align 8
  %9 = getelementptr inbounds %struct.stu, %struct.stu* %8, i32 0, i32 0
  %10 = getelementptr inbounds [20 x i8], [20 x i8]* %9, i64 0, i64 0
  %11 = load %struct.stu*, %struct.stu** %2, align 8
  %12 = getelementptr inbounds %struct.stu, %struct.stu* %11, i32 0, i32 1
  %13 = getelementptr inbounds [20 x i8], [20 x i8]* %12, i64 0, i64 0
  %14 = load %struct.stu*, %struct.stu** %2, align 8
  %15 = getelementptr inbounds %struct.stu, %struct.stu* %14, i32 0, i32 2
  %16 = load %struct.stu*, %struct.stu** %2, align 8
  %17 = getelementptr inbounds %struct.stu, %struct.stu* %16, i32 0, i32 3
  %18 = load %struct.stu*, %struct.stu** %2, align 8
  %19 = getelementptr inbounds %struct.stu, %struct.stu* %18, i32 0, i32 4
  %20 = getelementptr inbounds [20 x i8], [20 x i8]* %19, i64 0, i64 0
  %21 = load %struct.stu*, %struct.stu** %2, align 8
  %22 = getelementptr inbounds %struct.stu, %struct.stu* %21, i32 0, i32 5
  %23 = getelementptr inbounds [20 x i8], [20 x i8]* %22, i64 0, i64 0
  %24 = call i32 (i8*, ...) @__isoc99_scanf(i8* getelementptr inbounds ([18 x i8], [18 x i8]* @.str, i64 0, i64 0), i8* %10, i8* %13, i8* %15, i32* %17, i8* %20, i8* %23)
  br label %25

25:                                               ; preds = %0, %56
  %26 = load %struct.stu*, %struct.stu** %2, align 8
  store %struct.stu* %26, %struct.stu** %3, align 8
  %27 = call noalias i8* @malloc(i64 96) #3
  %28 = bitcast i8* %27 to %struct.stu*
  store %struct.stu* %28, %struct.stu** %2, align 8
  %29 = load %struct.stu*, %struct.stu** %3, align 8
  %30 = load %struct.stu*, %struct.stu** %2, align 8
  %31 = getelementptr inbounds %struct.stu, %struct.stu* %30, i32 0, i32 6
  store %struct.stu* %29, %struct.stu** %31, align 8
  %32 = load %struct.stu*, %struct.stu** %2, align 8
  %33 = getelementptr inbounds %struct.stu, %struct.stu* %32, i32 0, i32 0
  %34 = getelementptr inbounds [20 x i8], [20 x i8]* %33, i64 0, i64 0
  %35 = load %struct.stu*, %struct.stu** %2, align 8
  %36 = getelementptr inbounds %struct.stu, %struct.stu* %35, i32 0, i32 1
  %37 = getelementptr inbounds [20 x i8], [20 x i8]* %36, i64 0, i64 0
  %38 = load %struct.stu*, %struct.stu** %2, align 8
  %39 = getelementptr inbounds %struct.stu, %struct.stu* %38, i32 0, i32 2
  %40 = load %struct.stu*, %struct.stu** %2, align 8
  %41 = getelementptr inbounds %struct.stu, %struct.stu* %40, i32 0, i32 3
  %42 = load %struct.stu*, %struct.stu** %2, align 8
  %43 = getelementptr inbounds %struct.stu, %struct.stu* %42, i32 0, i32 4
  %44 = getelementptr inbounds [20 x i8], [20 x i8]* %43, i64 0, i64 0
  %45 = load %struct.stu*, %struct.stu** %2, align 8
  %46 = getelementptr inbounds %struct.stu, %struct.stu* %45, i32 0, i32 5
  %47 = getelementptr inbounds [20 x i8], [20 x i8]* %46, i64 0, i64 0
  %48 = call i32 (i8*, ...) @__isoc99_scanf(i8* getelementptr inbounds ([18 x i8], [18 x i8]* @.str, i64 0, i64 0), i8* %34, i8* %37, i8* %39, i32* %41, i8* %44, i8* %47)
  %49 = load %struct.stu*, %struct.stu** %2, align 8
  %50 = getelementptr inbounds %struct.stu, %struct.stu* %49, i32 0, i32 0
  %51 = getelementptr inbounds [20 x i8], [20 x i8]* %50, i64 0, i64 0
  %52 = load i8, i8* %51, align 8
  %53 = sext i8 %52 to i32
  %54 = icmp eq i32 %53, 101
  br i1 %54, label %55, label %56

55:                                               ; preds = %25
  br label %57

56:                                               ; preds = %25
  br label %25

57:                                               ; preds = %55
  br label %58

58:                                               ; preds = %63, %57
  %59 = load %struct.stu*, %struct.stu** %2, align 8
  %60 = getelementptr inbounds %struct.stu, %struct.stu* %59, i32 0, i32 6
  %61 = load %struct.stu*, %struct.stu** %60, align 8
  %62 = icmp ne %struct.stu* %61, null
  br i1 %62, label %63, label %87

63:                                               ; preds = %58
  %64 = load %struct.stu*, %struct.stu** %2, align 8
  %65 = getelementptr inbounds %struct.stu, %struct.stu* %64, i32 0, i32 6
  %66 = load %struct.stu*, %struct.stu** %65, align 8
  store %struct.stu* %66, %struct.stu** %2, align 8
  %67 = load %struct.stu*, %struct.stu** %2, align 8
  %68 = getelementptr inbounds %struct.stu, %struct.stu* %67, i32 0, i32 0
  %69 = getelementptr inbounds [20 x i8], [20 x i8]* %68, i64 0, i64 0
  %70 = load %struct.stu*, %struct.stu** %2, align 8
  %71 = getelementptr inbounds %struct.stu, %struct.stu* %70, i32 0, i32 1
  %72 = getelementptr inbounds [20 x i8], [20 x i8]* %71, i64 0, i64 0
  %73 = load %struct.stu*, %struct.stu** %2, align 8
  %74 = getelementptr inbounds %struct.stu, %struct.stu* %73, i32 0, i32 2
  %75 = load i8, i8* %74, align 8
  %76 = sext i8 %75 to i32
  %77 = load %struct.stu*, %struct.stu** %2, align 8
  %78 = getelementptr inbounds %struct.stu, %struct.stu* %77, i32 0, i32 3
  %79 = load i32, i32* %78, align 4
  %80 = load %struct.stu*, %struct.stu** %2, align 8
  %81 = getelementptr inbounds %struct.stu, %struct.stu* %80, i32 0, i32 4
  %82 = getelementptr inbounds [20 x i8], [20 x i8]* %81, i64 0, i64 0
  %83 = load %struct.stu*, %struct.stu** %2, align 8
  %84 = getelementptr inbounds %struct.stu, %struct.stu* %83, i32 0, i32 5
  %85 = getelementptr inbounds [20 x i8], [20 x i8]* %84, i64 0, i64 0
  %86 = call i32 (i8*, ...) @printf(i8* getelementptr inbounds ([19 x i8], [19 x i8]* @.str.1, i64 0, i64 0), i8* %69, i8* %72, i32 %76, i32 %79, i8* %82, i8* %85)
  br label %58

87:                                               ; preds = %58
  ret i32 0
}

; Function Attrs: nounwind
declare dso_local noalias i8* @malloc(i64) #1

declare dso_local i32 @__isoc99_scanf(i8*, ...) #2

declare dso_local i32 @printf(i8*, ...) #2


!llvm.module.flags = !{!0}
!llvm.ident = !{!1}

!0 = !{i32 1, !"wchar_size", i32 4}
!1 = !{!"clang version 10.0.0-4ubuntu1 "}
